; Function Attrs: mustprogress nofree norecurse nosync nounwind sspstrong willreturn memory(read, argmem: readwrite, inaccessiblemem: readwrite) uwtable
define void @_ZN3tbb6detail2r117threading_control26prepare_client_destructionENS1_24threading_control_clientE(ptr dead_on_unwind noalias writable writeonly sret(%"struct.tbb::detail::r1::threading_control_impl::client_snapshot") align 8 captures(none) initializes((0, 12), (16, 32)) %0, ptr noundef nonnull readonly align 8 captures(none) dereferenceable(16) %1, ptr %2, ptr %3) local_unnamed_addr #11 align 2 {
  tail call void @llvm.experimental.noalias.scope.decl(metadata !172)
  %5 = getelementptr inbounds nuw i8, ptr %3, i64 24
  %6 = load i64, ptr %5, align 8, !tbaa !80, !noalias !172
  store i64 %6, ptr %0, align 8, !tbaa !83, !alias.scope !172
  %7 = getelementptr inbounds nuw i8, ptr %0, i64 8
  %8 = getelementptr inbounds nuw i8, ptr %3, i64 16
  %9 = load ptr, ptr %8, align 8, !tbaa !86, !noalias !172
  %10 = getelementptr inbounds nuw i8, ptr %9, i64 220
  %11 = load i32, ptr %10, align 4, !tbaa !87, !noalias !172
  store i32 %11, ptr %7, align 8, !tbaa !115, !alias.scope !172
  %12 = getelementptr inbounds nuw i8, ptr %0, i64 16
  store ptr %3, ptr %12, align 8, !tbaa !116, !alias.scope !172
  %13 = getelementptr inbounds nuw i8, ptr %0, i64 24
  store ptr %2, ptr %13, align 8, !tbaa !117, !alias.scope !172
  ret void
}